; Function Attrs: nounwind uwtable
define internal fastcc ptr @mi_segment_huge_page_alloc(i64 noundef %0, i64 noundef %1, i32 noundef %2, ptr noundef %3) unnamed_addr #4 {
  %5 = alloca ptr, align 8
  call void @llvm.lifetime.start.p0(i64 8, ptr nonnull %5) #12
  store ptr null, ptr %5, align 8, !tbaa !89
  %6 = call fastcc ptr @mi_segment_alloc(i64 noundef %0, i64 noundef %1, i32 noundef %2, ptr noundef %3, ptr noundef nonnull %5) #10
  %7 = icmp eq ptr %6, null
  %8 = load ptr, ptr %5, align 8
  %9 = icmp eq ptr %8, null
  %or.cond = select i1 %7, i1 true, i1 %9
  br i1 %or.cond, label %63, label %10

10:                                               ; preds = %4
  %11 = getelementptr i8, ptr %8, i64 40
  %.val.i = load i64, ptr %11, align 8, !tbaa !14
  %12 = getelementptr inbounds nuw i8, ptr %6, i64 288
  %13 = ptrtoint ptr %8 to i64
  %14 = ptrtoint ptr %12 to i64
  %15 = sub i64 %13, %14
  %16 = sdiv exact i64 %15, 96
  %17 = load i32, ptr %8, align 8, !tbaa !22
  %18 = zext i32 %17 to i64
  %19 = shl nuw nsw i64 %18, 16
  %20 = shl i64 %16, 16
  %21 = getelementptr inbounds nuw i8, ptr %6, i64 %20
  %22 = add i64 %.val.i, -1
  %or.cond.i.i = icmp ult i64 %22, 131072
  br i1 %or.cond.i.i, label %23, label %29

23:                                               ; preds = %10
  %24 = ptrtoint ptr %21 to i64
  %25 = urem i64 %24, %.val.i
  %26 = sub nsw i64 %.val.i, %25
  %27 = icmp uge i64 %26, %.val.i
  %28 = add nuw nsw i64 %26, %.val.i
  %.not.i.i = icmp ult i64 %19, %28
  %or.cond35.i.i = select i1 %27, i1 true, i1 %.not.i.i
  %.1.i.i = select i1 %or.cond35.i.i, i64 0, i64 %26
  br label %29

29:                                               ; preds = %23, %10
  %.0.i.i = phi i64 [ %.1.i.i, %23 ], [ 0, %10 ]
  %30 = icmp ugt i64 %.val.i, 7
  br i1 %30, label %31, label %_mi_segment_page_start.exit

31:                                               ; preds = %29
  %32 = icmp ult i64 %.val.i, 65
  br i1 %32, label %33, label %36

33:                                               ; preds = %31
  %34 = mul nuw nsw i64 %.val.i, 3
  %35 = add nuw nsw i64 %.0.i.i, %34
  br label %_mi_segment_page_start.exit

36:                                               ; preds = %31
  %37 = icmp ult i64 %.val.i, 513
  %38 = select i1 %37, i64 %.val.i, i64 0
  %spec.select.i.i = add nuw nsw i64 %.0.i.i, %38
  br label %_mi_segment_page_start.exit

_mi_segment_page_start.exit:                      ; preds = %29, %33, %36
  %.2.i.i = phi i64 [ %35, %33 ], [ %.0.i.i, %29 ], [ %spec.select.i.i, %36 ]
  %39 = add nsw i64 %.2.i.i, 15
  %40 = and i64 %39, -16
  %41 = sub i64 %19, %40
  %42 = getelementptr inbounds nuw i8, ptr %21, i64 %40
  store i64 %41, ptr %11, align 8, !tbaa !14
  %.not = icmp eq i64 %1, 0
  br i1 %.not, label %63, label %43

43:                                               ; preds = %_mi_segment_page_start.exit
  %44 = getelementptr inbounds nuw i8, ptr %6, i64 24
  %45 = load i8, ptr %44, align 8, !tbaa !43, !range !30, !noundef !31
  %46 = trunc nuw i8 %45 to i1
  br i1 %46, label %47, label %63

47:                                               ; preds = %43
  %48 = ptrtoint ptr %42 to i64
  %49 = add i64 %1, -1
  %50 = tail call range(i64 1, 65) i64 @llvm.ctpop.i64(i64 %1)
  %51 = icmp samesign ult i64 %50, 2
  %52 = add i64 %49, %48
  br i1 %51, label %53, label %56

53:                                               ; preds = %47
  %54 = sub i64 0, %1
  %55 = and i64 %52, %54
  br label %_mi_align_up.exit

56:                                               ; preds = %47
  %57 = urem i64 %52, %1
  %58 = sub nuw i64 %52, %57
  br label %_mi_align_up.exit

_mi_align_up.exit:                                ; preds = %53, %56
  %.0.i = phi i64 [ %55, %53 ], [ %58, %56 ]
  %59 = getelementptr inbounds nuw i8, ptr %42, i64 8
  %60 = ptrtoint ptr %59 to i64
  %61 = sub i64 %.0.i, %60
  %62 = tail call zeroext i1 @_mi_os_reset(ptr noundef nonnull %59, i64 noundef %61) #11
  br label %63

63:                                               ; preds = %_mi_segment_page_start.exit, %43, %_mi_align_up.exit, %4
  %.0 = phi ptr [ null, %4 ], [ %8, %_mi_align_up.exit ], [ %8, %43 ], [ %8, %_mi_segment_page_start.exit ]
  call void @llvm.lifetime.end.p0(i64 8, ptr nonnull %5) #12
  ret ptr %.0
}